; ModuleID = '5/14.c'
source_filename = "5/14.c"
target datalayout = "e-m:e-p270:32:32-p271:32:32-p272:64:64-i64:64-f80:128-n8:16:32:64-S128"
target triple = "x86_64-pc-linux-gnu"

@.str = private unnamed_addr constant [4 x i8] c"%lf\00", align 1
@.str.1 = private unnamed_addr constant [5 x i8] c"%s%s\00", align 1
@.str.2 = private unnamed_addr constant [6 x i8] c"error\00", align 1
@.str.3 = private unnamed_addr constant [4 x i8] c"yes\00", align 1
@.str.4 = private unnamed_addr constant [3 x i8] c"no\00", align 1

; Function Attrs: noinline nounwind uwtable
define dso_local i32 @main() #0 {
  %1 = alloca i32, align 4
  %2 = alloca [2 x [501 x i8]], align 16
  %3 = alloca double, align 8
  %4 = alloca double, align 8
  %5 = alloca double, align 8
  %6 = alloca double, align 8
  %7 = alloca i32, align 4
  %8 = alloca i32, align 4
  %9 = alloca i32, align 4
  %10 = alloca i32, align 4
  store i32 0, i32* %1, align 4
  store double 0.000000e+00, double* %4, align 8
  %11 = call i32 (i8*, ...) @__isoc99_scanf(i8* getelementptr inbounds ([4 x i8], [4 x i8]* @.str, i64 0, i64 0), double* %3)
  %12 = getelementptr inbounds [2 x [501 x i8]], [2 x [501 x i8]]* %2, i64 0, i64 0
  %13 = getelementptr inbounds [501 x i8], [501 x i8]* %12, i64 0, i64 0
  %14 = getelementptr inbounds [2 x [501 x i8]], [2 x [501 x i8]]* %2, i64 0, i64 1
  %15 = getelementptr inbounds [501 x i8], [501 x i8]* %14, i64 0, i64 0
  %16 = call i32 (i8*, ...) @__isoc99_scanf(i8* getelementptr inbounds ([5 x i8], [5 x i8]* @.str.1, i64 0, i64 0), i8* %13, i8* %15)
  %17 = getelementptr inbounds [2 x [501 x i8]], [2 x [501 x i8]]* %2, i64 0, i64 0
  %18 = getelementptr inbounds [501 x i8], [501 x i8]* %17, i64 0, i64 0
  %19 = call i64 @strlen(i8* %18) #3
  %20 = trunc i64 %19 to i32
  store i32 %20, i32* %7, align 4
  %21 = getelementptr inbounds [2 x [501 x i8]], [2 x [501 x i8]]* %2, i64 0, i64 1
  %22 = getelementptr inbounds [501 x i8], [501 x i8]* %21, i64 0, i64 0
  %23 = call i64 @strlen(i8* %22) #3
  %24 = trunc i64 %23 to i32
  store i32 %24, i32* %9, align 4
  %25 = load i32, i32* %7, align 4
  %26 = load i32, i32* %9, align 4
  %27 = icmp ne i32 %25, %26
  br i1 %27, label %28, label %30

28:                                               ; preds = %0
  %29 = call i32 (i8*, ...) @printf(i8* getelementptr inbounds ([6 x i8], [6 x i8]* @.str.2, i64 0, i64 0))
  store i32 0, i32* %1, align 4
  br label %130

30:                                               ; preds = %0
  store i32 0, i32* %8, align 4
  br label %31

31:                                               ; preds = %86, %30
  %32 = load i32, i32* %8, align 4
  %33 = icmp slt i32 %32, 2
  br i1 %33, label %34, label %89

34:                                               ; preds = %31
  store i32 0, i32* %10, align 4
  br label %35

35:                                               ; preds = %82, %34
  %36 = load i32, i32* %10, align 4
  %37 = load i32, i32* %7, align 4
  %38 = icmp slt i32 %36, %37
  br i1 %38, label %39, label %85

39:                                               ; preds = %35
  %40 = load i32, i32* %8, align 4
  %41 = sext i32 %40 to i64
  %42 = getelementptr inbounds [2 x [501 x i8]], [2 x [501 x i8]]* %2, i64 0, i64 %41
  %43 = load i32, i32* %10, align 4
  %44 = sext i32 %43 to i64
  %45 = getelementptr inbounds [501 x i8], [501 x i8]* %42, i64 0, i64 %44
  %46 = load i8, i8* %45, align 1
  %47 = sext i8 %46 to i32
  %48 = icmp ne i32 %47, 65
  br i1 %48, label %49, label %81

49:                                               ; preds = %39
  %50 = load i32, i32* %8, align 4
  %51 = sext i32 %50 to i64
  %52 = getelementptr inbounds [2 x [501 x i8]], [2 x [501 x i8]]* %2, i64 0, i64 %51
  %53 = load i32, i32* %10, align 4
  %54 = sext i32 %53 to i64
  %55 = getelementptr inbounds [501 x i8], [501 x i8]* %52, i64 0, i64 %54
  %56 = load i8, i8* %55, align 1
  %57 = sext i8 %56 to i32
  %58 = icmp ne i32 %57, 84
  br i1 %58, label %59, label %81

59:                                               ; preds = %49
  %60 = load i32, i32* %8, align 4
  %61 = sext i32 %60 to i64
  %62 = getelementptr inbounds [2 x [501 x i8]], [2 x [501 x i8]]* %2, i64 0, i64 %61
  %63 = load i32, i32* %10, align 4
  %64 = sext i32 %63 to i64
  %65 = getelementptr inbounds [501 x i8], [501 x i8]* %62, i64 0, i64 %64
  %66 = load i8, i8* %65, align 1
  %67 = sext i8 %66 to i32
  %68 = icmp ne i32 %67, 71
  br i1 %68, label %69, label %81

69:                                               ; preds = %59
  %70 = load i32, i32* %8, align 4
  %71 = sext i32 %70 to i64
  %72 = getelementptr inbounds [2 x [501 x i8]], [2 x [501 x i8]]* %2, i64 0, i64 %71
  %73 = load i32, i32* %10, align 4
  %74 = sext i32 %73 to i64
  %75 = getelementptr inbounds [501 x i8], [501 x i8]* %72, i64 0, i64 %74
  %76 = load i8, i8* %75, align 1
  %77 = sext i8 %76 to i32
  %78 = icmp ne i32 %77, 67
  br i1 %78, label %79, label %81

79:                                               ; preds = %69
  %80 = call i32 (i8*, ...) @printf(i8* getelementptr inbounds ([6 x i8], [6 x i8]* @.str.2, i64 0, i64 0))
  store i32 0, i32* %1, align 4
  br label %130

81:                                               ; preds = %69, %59, %49, %39
  br label %82

82:                                               ; preds = %81
  %83 = load i32, i32* %10, align 4
  %84 = add nsw i32 %83, 1
  store i32 %84, i32* %10, align 4
  br label %35

85:                                               ; preds = %35
  br label %86

86:                                               ; preds = %85
  %87 = load i32, i32* %8, align 4
  %88 = add nsw i32 %87, 1
  store i32 %88, i32* %8, align 4
  br label %31

89:                                               ; preds = %31
  br label %90

90:                                               ; preds = %89
  store i32 0, i32* %8, align 4
  br label %91

91:                                               ; preds = %113, %90
  %92 = load i32, i32* %8, align 4
  %93 = load i32, i32* %7, align 4
  %94 = icmp slt i32 %92, %93
  br i1 %94, label %95, label %116

95:                                               ; preds = %91
  %96 = getelementptr inbounds [2 x [501 x i8]], [2 x [501 x i8]]* %2, i64 0, i64 0
  %97 = load i32, i32* %8, align 4
  %98 = sext i32 %97 to i64
  %99 = getelementptr inbounds [501 x i8], [501 x i8]* %96, i64 0, i64 %98
  %100 = load i8, i8* %99, align 1
  %101 = sext i8 %100 to i32
  %102 = getelementptr inbounds [2 x [501 x i8]], [2 x [501 x i8]]* %2, i64 0, i64 1
  %103 = load i32, i32* %8, align 4
  %104 = sext i32 %103 to i64
  %105 = getelementptr inbounds [501 x i8], [501 x i8]* %102, i64 0, i64 %104
  %106 = load i8, i8* %105, align 1
  %107 = sext i8 %106 to i32
  %108 = icmp eq i32 %101, %107
  br i1 %108, label %109, label %112

109:                                              ; preds = %95
  %110 = load double, double* %4, align 8
  %111 = fadd double %110, 1.000000e+00
  store double %111, double* %4, align 8
  br label %112

112:                                              ; preds = %109, %95
  br label %113

113:                                              ; preds = %112
  %114 = load i32, i32* %8, align 4
  %115 = add nsw i32 %114, 1
  store i32 %115, i32* %8, align 4
  br label %91

116:                                              ; preds = %91
  %117 = load i32, i32* %7, align 4
  %118 = sitofp i32 %117 to double
  store double %118, double* %6, align 8
  %119 = load double, double* %4, align 8
  %120 = load double, double* %6, align 8
  %121 = fdiv double %119, %120
  store double %121, double* %5, align 8
  %122 = load double, double* %5, align 8
  %123 = load double, double* %3, align 8
  %124 = fcmp oge double %122, %123
  br i1 %124, label %125, label %127

125:                                              ; preds = %116
  %126 = call i32 (i8*, ...) @printf(i8* getelementptr inbounds ([4 x i8], [4 x i8]* @.str.3, i64 0, i64 0))
  br label %129

127:                                              ; preds = %116
  %128 = call i32 (i8*, ...) @printf(i8* getelementptr inbounds ([3 x i8], [3 x i8]* @.str.4, i64 0, i64 0))
  br label %129

129:                                              ; preds = %127, %125
  store i32 0, i32* %1, align 4
  br label %130

130:                                              ; preds = %129, %79, %28
  %131 = load i32, i32* %1, align 4
  ret i32 %131
}

declare dso_local i32 @__isoc99_scanf(i8*, ...) #1

; Function Attrs: nounwind readonly
declare dso_local i64 @strlen(i8*) #2

declare dso_local i32 @printf(i8*, ...) #1


!llvm.module.flags = !{!0}
!llvm.ident = !{!1}

!0 = !{i32 1, !"wchar_size", i32 4}
!1 = !{!"clang version 10.0.0-4ubuntu1 "}
